; Function Attrs: mustprogress nounwind uwtable
define dso_local noundef ptr @_ZNK4llvm18TargetLoweringBase17emitTrailingFenceERNS_13IRBuilderBaseEPNS_11InstructionENS_14AtomicOrderingE(ptr nocapture nonnull readnone align 8 %0, ptr noundef nonnull align 8 dereferenceable(128) %1, ptr nocapture readnone %2, i32 noundef %3) unnamed_addr #0 align 2 {
  %5 = alloca %"class.llvm::Twine", align 8
  %6 = zext i32 %3 to i64
  %7 = getelementptr inbounds [8 x [8 x i8]], ptr @_ZZN4llvm23isAtLeastOrStrongerThanENS_14AtomicOrderingES0_E6lookup, i64 0, i64 %6, i64 4
  %8 = load i8, ptr %7, align 4
  %9 = trunc i8 %8 to i1
  br i1 %9, label %10, label %_ZN4llvm13IRBuilderBase11CreateFenceENS_14AtomicOrderingEhRKNS_5TwineE.exit

10:                                               ; preds = %4
  %11 = getelementptr inbounds nuw i8, ptr %5, i64 32
  store i16 257, ptr %11, align 8
  %12 = tail call noundef ptr @_ZN4llvm4UsernwEmj(i64 noundef 80, i32 noundef 0) #26
  %13 = getelementptr inbounds nuw i8, ptr %1, i64 72
  %14 = load ptr, ptr %13, align 8
  tail call void @_ZN4llvm9FenceInstC1ERNS_11LLVMContextENS_14AtomicOrderingEhNS_14InsertPositionE(ptr noundef nonnull align 8 dereferenceable(73) %12, ptr noundef nonnull align 8 dereferenceable(8) %14, i32 noundef %3, i8 noundef zeroext 1, ptr null, i64 0) #26
  %15 = getelementptr inbounds nuw i8, ptr %1, i64 88
  %16 = load ptr, ptr %15, align 8
  %17 = getelementptr inbounds nuw i8, ptr %1, i64 56
  %.sroa.0.0.copyload.i.i = load ptr, ptr %17, align 8
  %.sroa.2.0..sroa_idx.i.i = getelementptr inbounds i8, ptr %1, i64 64
  %.sroa.2.0.copyload.i.i = load i64, ptr %.sroa.2.0..sroa_idx.i.i, align 8
  %18 = load ptr, ptr %16, align 8
  %19 = getelementptr inbounds i8, ptr %18, i64 16
  %20 = load ptr, ptr %19, align 8
  call void %20(ptr noundef nonnull align 8 dereferenceable(8) %16, ptr noundef nonnull %12, ptr noundef nonnull align 8 dereferenceable(34) %5, ptr %.sroa.0.0.copyload.i.i, i64 %.sroa.2.0.copyload.i.i) #26
  %21 = load ptr, ptr %1, align 8
  %22 = call noundef i64 @_ZNK4llvm15SmallVectorBaseIjE4sizeEv(ptr noundef nonnull align 8 dereferenceable(16) %1) #26
  %23 = getelementptr inbounds %"struct.std::pair.554", ptr %21, i64 %22
  %.not10.i.i.i = icmp eq i64 %22, 0
  br i1 %.not10.i.i.i, label %_ZN4llvm13IRBuilderBase11CreateFenceENS_14AtomicOrderingEhRKNS_5TwineE.exit, label %.lr.ph.i.i.i

.lr.ph.i.i.i:                                     ; preds = %10, %.lr.ph.i.i.i
  %.011.i.i.i = phi ptr [ %27, %.lr.ph.i.i.i ], [ %21, %10 ]
  %24 = load i32, ptr %.011.i.i.i, align 8
  %25 = getelementptr inbounds nuw i8, ptr %.011.i.i.i, i64 8
  %26 = load ptr, ptr %25, align 8
  call void @_ZN4llvm11Instruction11setMetadataEjPNS_6MDNodeE(ptr noundef nonnull align 8 dereferenceable(72) %12, i32 noundef %24, ptr noundef %26) #26
  %27 = getelementptr inbounds i8, ptr %.011.i.i.i, i64 16
  %.not.i.i.i = icmp eq ptr %27, %23
  br i1 %.not.i.i.i, label %_ZN4llvm13IRBuilderBase11CreateFenceENS_14AtomicOrderingEhRKNS_5TwineE.exit, label %.lr.ph.i.i.i

_ZN4llvm13IRBuilderBase11CreateFenceENS_14AtomicOrderingEhRKNS_5TwineE.exit: ; preds = %.lr.ph.i.i.i, %10, %4
  %.0 = phi ptr [ null, %4 ], [ %12, %10 ], [ %12, %.lr.ph.i.i.i ]
  ret ptr %.0
}